; Function Attrs: mustprogress nounwind uwtable
define dso_local noundef ptr @_ZN5vcpkg4Json6Object3getENS_10StringViewE(ptr nocapture noundef nonnull readonly align 8 dereferenceable(24) %0, ptr %1, i64 %2) local_unnamed_addr #1 align 2 {
  %4 = tail call ptr @_ZNK5vcpkg4Json6Object17internal_find_keyB5cxx11ENS_10StringViewE(ptr noundef nonnull align 8 dereferenceable(24) %0, ptr %1, i64 %2) #26
  %5 = getelementptr inbounds i8, ptr %0, i64 8
  %6 = load ptr, ptr %5, align 8
  %7 = icmp eq ptr %4, %6
  %8 = load ptr, ptr %0, align 8
  %9 = ptrtoint ptr %4 to i64
  %10 = ptrtoint ptr %8 to i64
  %11 = sub i64 %9, %10
  %12 = getelementptr inbounds i8, ptr %8, i64 %11
  %13 = getelementptr inbounds i8, ptr %12, i64 32
  %.0 = select i1 %7, ptr null, ptr %13
  ret ptr %.0
}